target datalayout = "e-m:e-p270:32:32-p271:32:32-p272:64:64-i64:64-i128:128-f80:128-n8:16:32:64-S128"
target triple = "x86_64-pc-linux-gnu"

%struct._PQconninfoOption = type { ptr, ptr, ptr, ptr, ptr, ptr, i32 }

@.str.31 = private unnamed_addr constant [14 x i8] c"out of memory\00", align 1
@.str.32 = private unnamed_addr constant [7 x i8] c"PGHOST\00", align 1
@.str.33 = private unnamed_addr constant [11 x i8] c"PGHOSTADDR\00", align 1
@.str.34 = private unnamed_addr constant [10 x i8] c"localhost\00", align 1
@.str.35 = private unnamed_addr constant [10 x i8] c"127.0.0.1\00", align 1
@.str.36 = private unnamed_addr constant [4 x i8] c"::1\00", align 1
@.str.37 = private unnamed_addr constant [63 x i8] c"libpq environment variable %s has a non-local server value: %s\00", align 1

; Function Attrs: inlinehint nounwind uwtable
define internal zeroext i1 @is_unixsock_path(ptr noundef %0) #8 {
  %2 = alloca ptr, align 8
  store ptr %0, ptr %2, align 8
  %3 = load ptr, ptr %2, align 8
  %4 = getelementptr inbounds i8, ptr %3, i64 0
  %5 = load i8, ptr %4, align 1
  %6 = sext i8 %5 to i32
  %7 = icmp eq i32 %6, 47
  br i1 %7, label %14, label %8

8:                                                ; preds = %1
  %9 = load ptr, ptr %2, align 8
  %10 = getelementptr inbounds i8, ptr %9, i64 0
  %11 = load i8, ptr %10, align 1
  %12 = sext i8 %11 to i32
  %13 = icmp eq i32 %12, 64
  br label %14

14:                                               ; preds = %8, %1
  %15 = phi i1 [ true, %1 ], [ %13, %8 ]
  ret i1 %15
}

; Function Attrs: nounwind uwtable
define dso_local void @check_pghost_envvar() #0 {
  %1 = alloca ptr, align 8
  %2 = alloca ptr, align 8
  %3 = alloca ptr, align 8
  call void @llvm.lifetime.start.p0(i64 8, ptr %1) #9
  call void @llvm.lifetime.start.p0(i64 8, ptr %2) #9
  %4 = call ptr @PQconndefaults()
  store ptr %4, ptr %2, align 8
  %5 = load ptr, ptr %2, align 8
  %6 = icmp ne ptr %5, null
  br i1 %6, label %8, label %7

7:                                                ; preds = %0
  call void (ptr, ...) @pg_fatal(ptr noundef @.str.31) #11
  unreachable

8:                                                ; preds = %0
  %9 = load ptr, ptr %2, align 8
  store ptr %9, ptr %1, align 8
  br label %10

10:                                               ; preds = %65, %8
  %11 = load ptr, ptr %1, align 8
  %12 = getelementptr inbounds nuw %struct._PQconninfoOption, ptr %11, i32 0, i32 0
  %13 = load ptr, ptr %12, align 8
  %14 = icmp ne ptr %13, null
  br i1 %14, label %15, label %68

15:                                               ; preds = %10
  %16 = load ptr, ptr %1, align 8
  %17 = getelementptr inbounds nuw %struct._PQconninfoOption, ptr %16, i32 0, i32 1
  %18 = load ptr, ptr %17, align 8
  %19 = icmp ne ptr %18, null
  br i1 %19, label %20, label %64

20:                                               ; preds = %15
  %21 = load ptr, ptr %1, align 8
  %22 = getelementptr inbounds nuw %struct._PQconninfoOption, ptr %21, i32 0, i32 1
  %23 = load ptr, ptr %22, align 8
  %24 = call i32 @strcmp(ptr noundef %23, ptr noundef @.str.32) #12
  %25 = icmp eq i32 %24, 0
  br i1 %25, label %32, label %26

26:                                               ; preds = %20
  %27 = load ptr, ptr %1, align 8
  %28 = getelementptr inbounds nuw %struct._PQconninfoOption, ptr %27, i32 0, i32 1
  %29 = load ptr, ptr %28, align 8
  %30 = call i32 @strcmp(ptr noundef %29, ptr noundef @.str.33) #12
  %31 = icmp eq i32 %30, 0
  br i1 %31, label %32, label %64

32:                                               ; preds = %26, %20
  call void @llvm.lifetime.start.p0(i64 8, ptr %3) #9
  %33 = load ptr, ptr %1, align 8
  %34 = getelementptr inbounds nuw %struct._PQconninfoOption, ptr %33, i32 0, i32 1
  %35 = load ptr, ptr %34, align 8
  %36 = call ptr @getenv(ptr noundef %35) #9
  store ptr %36, ptr %3, align 8
  %37 = load ptr, ptr %3, align 8
  %38 = icmp ne ptr %37, null
  br i1 %38, label %39, label %63

39:                                               ; preds = %32
  %40 = load ptr, ptr %3, align 8
  %41 = call i64 @strlen(ptr noundef %40) #12
  %42 = icmp ugt i64 %41, 0
  br i1 %42, label %43, label %63

43:                                               ; preds = %39
  %44 = load ptr, ptr %3, align 8
  %45 = call i32 @strcmp(ptr noundef %44, ptr noundef @.str.34) #12
  %46 = icmp ne i32 %45, 0
  br i1 %46, label %47, label %63

47:                                               ; preds = %43
  %48 = load ptr, ptr %3, align 8
  %49 = call i32 @strcmp(ptr noundef %48, ptr noundef @.str.35) #12
  %50 = icmp ne i32 %49, 0
  br i1 %50, label %51, label %63

51:                                               ; preds = %47
  %52 = load ptr, ptr %3, align 8
  %53 = call i32 @strcmp(ptr noundef %52, ptr noundef @.str.36) #12
  %54 = icmp ne i32 %53, 0
  br i1 %54, label %55, label %63

55:                                               ; preds = %51
  %56 = load ptr, ptr %3, align 8
  %57 = call zeroext i1 @is_unixsock_path(ptr noundef %56)
  br i1 %57, label %63, label %58

58:                                               ; preds = %55
  %59 = load ptr, ptr %1, align 8
  %60 = getelementptr inbounds nuw %struct._PQconninfoOption, ptr %59, i32 0, i32 1
  %61 = load ptr, ptr %60, align 8
  %62 = load ptr, ptr %3, align 8
  call void (ptr, ...) @pg_fatal(ptr noundef @.str.37, ptr noundef %61, ptr noundef %62) #11
  unreachable

63:                                               ; preds = %55, %51, %47, %43, %39, %32
  call void @llvm.lifetime.end.p0(i64 8, ptr %3) #9
  br label %64

64:                                               ; preds = %63, %26, %15
  br label %65

65:                                               ; preds = %64
  %66 = load ptr, ptr %1, align 8
  %67 = getelementptr inbounds nuw %struct._PQconninfoOption, ptr %66, i32 1
  store ptr %67, ptr %1, align 8
  br label %10, !llvm.loop !6

68:                                               ; preds = %10
  %69 = load ptr, ptr %2, align 8
  call void @PQconninfoFree(ptr noundef %69)
  call void @llvm.lifetime.end.p0(i64 8, ptr %2) #9
  call void @llvm.lifetime.end.p0(i64 8, ptr %1) #9
  ret void
}