; Function Attrs: nounwind uwtable
define dso_local void @check_pghost_envvar() local_unnamed_addr #0 {
  %1 = tail call ptr @PQconndefaults() #10
  %.not = icmp eq ptr %1, null
  br i1 %.not, label %3, label %.preheader

.preheader:                                       ; preds = %0
  %2 = load ptr, ptr %1, align 8
  %.not2028 = icmp eq ptr %2, null
  br i1 %.not2028, label %._crit_edge, label %.lr.ph

3:                                                ; preds = %0
  tail call void (ptr, ...) @pg_fatal(ptr noundef nonnull @.str.31) #12
  unreachable

.lr.ph:                                           ; preds = %.preheader, %23
  %.029 = phi ptr [ %24, %23 ], [ %1, %.preheader ]
  %4 = getelementptr inbounds nuw i8, ptr %.029, i64 8
  %5 = load ptr, ptr %4, align 8
  %.not21 = icmp eq ptr %5, null
  br i1 %.not21, label %23, label %6

6:                                                ; preds = %.lr.ph
  %7 = tail call i32 @strcmp(ptr noundef nonnull dereferenceable(1) %5, ptr noundef nonnull dereferenceable(7) @.str.32) #13
  %8 = icmp eq i32 %7, 0
  br i1 %8, label %12, label %9

9:                                                ; preds = %6
  %10 = tail call i32 @strcmp(ptr noundef nonnull dereferenceable(1) %5, ptr noundef nonnull dereferenceable(11) @.str.33) #13
  %11 = icmp eq i32 %10, 0
  br i1 %11, label %12, label %23

12:                                               ; preds = %9, %6
  %13 = tail call ptr @getenv(ptr noundef nonnull %5) #10
  %.not22 = icmp eq ptr %13, null
  br i1 %.not22, label %23, label %14

14:                                               ; preds = %12
  %char0 = load i8, ptr %13, align 1
  %.not23 = icmp eq i8 %char0, 0
  br i1 %.not23, label %23, label %15

15:                                               ; preds = %14
  %16 = tail call i32 @strcmp(ptr noundef nonnull dereferenceable(1) %13, ptr noundef nonnull dereferenceable(10) @.str.34) #13
  %.not24 = icmp eq i32 %16, 0
  br i1 %.not24, label %23, label %17

17:                                               ; preds = %15
  %18 = tail call i32 @strcmp(ptr noundef nonnull dereferenceable(1) %13, ptr noundef nonnull dereferenceable(10) @.str.35) #13
  %.not25 = icmp eq i32 %18, 0
  br i1 %.not25, label %23, label %19

19:                                               ; preds = %17
  %20 = tail call i32 @strcmp(ptr noundef nonnull dereferenceable(1) %13, ptr noundef nonnull dereferenceable(4) @.str.36) #13
  %.not26 = icmp eq i32 %20, 0
  br i1 %.not26, label %23, label %21

21:                                               ; preds = %19
  switch i8 %char0, label %22 [
    i8 64, label %23
    i8 47, label %23
  ]

22:                                               ; preds = %21
  tail call void (ptr, ...) @pg_fatal(ptr noundef nonnull @.str.37, ptr noundef nonnull %5, ptr noundef nonnull %13) #12
  unreachable

23:                                               ; preds = %21, %21, %12, %14, %15, %17, %19, %.lr.ph, %9
  %24 = getelementptr inbounds nuw i8, ptr %.029, i64 56
  %25 = load ptr, ptr %24, align 8
  %.not20 = icmp eq ptr %25, null
  br i1 %.not20, label %._crit_edge, label %.lr.ph, !llvm.loop !4

._crit_edge:                                      ; preds = %23, %.preheader
  tail call void @PQconninfoFree(ptr noundef nonnull %1) #10
  ret void
}